target datalayout = "e-m:e-p270:32:32-p271:32:32-p272:64:64-i64:64-i128:128-f80:128-n8:16:32:64-S128"
target triple = "x86_64-unknown-linux-gnu"

%"struct.node::AssertionInfo" = type { ptr, ptr, ptr }
%"class.node::MemoryRetainer" = type { ptr }
%"struct.node::crypto::CSPRNGResult" = type { i8 }
%"struct.node::crypto::RandomPrimeConfig" = type <{ %"class.node::MemoryRetainer", %"class.std::unique_ptr.278", %"class.std::unique_ptr.278", %"class.std::unique_ptr.278", i32, i8, [3 x i8] }>
%"class.std::unique_ptr.278" = type { %"struct.std::__uniq_ptr_data.279" }
%"struct.std::__uniq_ptr_data.279" = type { %"class.std::__uniq_ptr_impl.280" }
%"class.std::__uniq_ptr_impl.280" = type { %"class.std::tuple.281" }
%"class.std::tuple.281" = type { %"struct.std::_Tuple_impl.282" }
%"struct.std::_Tuple_impl.282" = type { %"struct.std::_Head_base.285" }
%"struct.std::_Head_base.285" = type { ptr }

@_ZZN4node6crypto17RandomPrimeTraits10DeriveBitsEPNS_11EnvironmentERKNS0_17RandomPrimeConfigEPNS0_10ByteSourceEE4args = internal constant %"struct.node::AssertionInfo" { ptr @.str.25, ptr @.str.26, ptr @.str.27 }, align 8

; Function Attrs: mustprogress nounwind uwtable
define linkonce_odr dso_local noundef nonnull align 8 dereferenceable(8) ptr @_ZNSt10_Head_baseILm0EP9bignum_stLb0EE7_M_headERKS2_(ptr noundef nonnull align 8 dereferenceable(8) %__b) #4 comdat align 2 {
entry:
  %__b.addr = alloca ptr, align 8
  store ptr %__b, ptr %__b.addr, align 8
  %0 = load ptr, ptr %__b.addr, align 8
  %_M_head_impl = getelementptr inbounds %"struct.std::_Head_base.285", ptr %0, i32 0, i32 0
  ret ptr %_M_head_impl
}

; Function Attrs: mustprogress nounwind uwtable
define linkonce_odr dso_local noundef nonnull align 8 dereferenceable(8) ptr @_ZNSt11_Tuple_implILm0EJP9bignum_stN4node15FunctionDeleterIS0_XadL_Z7BN_freeEEEEEE7_M_headERKS5_(ptr noundef nonnull align 8 dereferenceable(8) %__t) #4 comdat align 2 {
entry:
  %__t.addr = alloca ptr, align 8
  store ptr %__t, ptr %__t.addr, align 8
  %0 = load ptr, ptr %__t.addr, align 8
  %call = call noundef nonnull align 8 dereferenceable(8) ptr @_ZNSt10_Head_baseILm0EP9bignum_stLb0EE7_M_headERKS2_(ptr noundef nonnull align 8 dereferenceable(8) %0) #3
  ret ptr %call
}

; Function Attrs: mustprogress nounwind uwtable
define linkonce_odr dso_local noundef nonnull align 8 dereferenceable(8) ptr @_ZSt12__get_helperILm0EP9bignum_stJN4node15FunctionDeleterIS0_XadL_Z7BN_freeEEEEEERKT0_RKSt11_Tuple_implIXT_EJS5_DpT1_EE(ptr noundef nonnull align 8 dereferenceable(8) %__t) #4 comdat {
entry:
  %__t.addr = alloca ptr, align 8
  store ptr %__t, ptr %__t.addr, align 8
  %0 = load ptr, ptr %__t.addr, align 8
  %call = call noundef nonnull align 8 dereferenceable(8) ptr @_ZNSt11_Tuple_implILm0EJP9bignum_stN4node15FunctionDeleterIS0_XadL_Z7BN_freeEEEEEE7_M_headERKS5_(ptr noundef nonnull align 8 dereferenceable(8) %0) #3
  ret ptr %call
}

; Function Attrs: mustprogress nounwind uwtable
define linkonce_odr dso_local noundef nonnull align 8 dereferenceable(8) ptr @_ZSt3getILm0EJP9bignum_stN4node15FunctionDeleterIS0_XadL_Z7BN_freeEEEEEERKNSt13tuple_elementIXT_ESt5tupleIJDpT0_EEE4typeERKS9_(ptr noundef nonnull align 8 dereferenceable(8) %__t) #4 comdat {
entry:
  %__t.addr = alloca ptr, align 8
  store ptr %__t, ptr %__t.addr, align 8
  %0 = load ptr, ptr %__t.addr, align 8
  %call = call noundef nonnull align 8 dereferenceable(8) ptr @_ZSt12__get_helperILm0EP9bignum_stJN4node15FunctionDeleterIS0_XadL_Z7BN_freeEEEEEERKT0_RKSt11_Tuple_implIXT_EJS5_DpT1_EE(ptr noundef nonnull align 8 dereferenceable(8) %0) #3
  ret ptr %call
}

; Function Attrs: mustprogress nounwind uwtable
define linkonce_odr dso_local noundef ptr @_ZNKSt15__uniq_ptr_implI9bignum_stN4node15FunctionDeleterIS0_XadL_Z7BN_freeEEEEE6_M_ptrEv(ptr noundef nonnull align 8 dereferenceable(8) %this) #4 comdat align 2 {
entry:
  %this.addr = alloca ptr, align 8
  store ptr %this, ptr %this.addr, align 8
  %this1 = load ptr, ptr %this.addr, align 8
  %_M_t = getelementptr inbounds %"class.std::__uniq_ptr_impl.280", ptr %this1, i32 0, i32 0
  %call = call noundef nonnull align 8 dereferenceable(8) ptr @_ZSt3getILm0EJP9bignum_stN4node15FunctionDeleterIS0_XadL_Z7BN_freeEEEEEERKNSt13tuple_elementIXT_ESt5tupleIJDpT0_EEE4typeERKS9_(ptr noundef nonnull align 8 dereferenceable(8) %_M_t) #3
  %0 = load ptr, ptr %call, align 8
  ret ptr %0
}

; Function Attrs: mustprogress nounwind uwtable
define linkonce_odr dso_local noundef ptr @_ZNKSt10unique_ptrI9bignum_stN4node15FunctionDeleterIS0_XadL_Z7BN_freeEEEEE3getEv(ptr noundef nonnull align 8 dereferenceable(8) %this) #4 comdat align 2 {
entry:
  %this.addr = alloca ptr, align 8
  store ptr %this, ptr %this.addr, align 8
  %this1 = load ptr, ptr %this.addr, align 8
  %_M_t = getelementptr inbounds %"class.std::unique_ptr.278", ptr %this1, i32 0, i32 0
  %call = call noundef ptr @_ZNKSt15__uniq_ptr_implI9bignum_stN4node15FunctionDeleterIS0_XadL_Z7BN_freeEEEEE6_M_ptrEv(ptr noundef nonnull align 8 dereferenceable(8) %_M_t) #3
  ret ptr %call
}

; Function Attrs: mustprogress nounwind uwtable
define linkonce_odr dso_local noundef zeroext i1 @_ZNK4node6crypto12CSPRNGResult5is_okEv(ptr noundef nonnull align 1 dereferenceable(1) %this) #4 comdat align 2 {
entry:
  %this.addr = alloca ptr, align 8
  store ptr %this, ptr %this.addr, align 8
  %this1 = load ptr, ptr %this.addr, align 8
  %ok = getelementptr inbounds %"struct.node::crypto::CSPRNGResult", ptr %this1, i32 0, i32 0
  %0 = load i8, ptr %ok, align 1
  %tobool = trunc i8 %0 to i1
  ret i1 %tobool
}

; Function Attrs: mustprogress nounwind uwtable
define dso_local noundef zeroext i1 @_ZN4node6crypto17RandomPrimeTraits10DeriveBitsEPNS_11EnvironmentERKNS0_17RandomPrimeConfigEPNS0_10ByteSourceE(ptr noundef %env, ptr noundef nonnull align 8 dereferenceable(40) %params, ptr noundef %unused) #4 align 2 {
entry:
  %retval = alloca i1, align 1
  %env.addr = alloca ptr, align 8
  %params.addr = alloca ptr, align 8
  %unused.addr = alloca ptr, align 8
  %ref.tmp = alloca %"struct.node::crypto::CSPRNGResult", align 1
  store ptr %env, ptr %env.addr, align 8
  store ptr %params, ptr %params.addr, align 8
  store ptr %unused, ptr %unused.addr, align 8
  br label %do.body

do.body:                                          ; preds = %entry
  %call = call i8 @_ZN4node6crypto6CSPRNGEPvm(ptr noundef null, i64 noundef 0)
  %coerce.dive = getelementptr inbounds %"struct.node::crypto::CSPRNGResult", ptr %ref.tmp, i32 0, i32 0
  store i8 %call, ptr %coerce.dive, align 1
  %call1 = call noundef zeroext i1 @_ZNK4node6crypto12CSPRNGResult5is_okEv(ptr noundef nonnull align 1 dereferenceable(1) %ref.tmp)
  %lnot = xor i1 %call1, true
  %lnot2 = xor i1 %lnot, true
  %lnot3 = xor i1 %lnot2, true
  br i1 %lnot3, label %if.then, label %if.end

if.then:                                          ; preds = %do.body
  br label %do.body4

do.body4:                                         ; preds = %if.then
  call void @_ZN4node6AssertERKNS_13AssertionInfoE(ptr noundef nonnull align 8 dereferenceable(24) @_ZZN4node6crypto17RandomPrimeTraits10DeriveBitsEPNS_11EnvironmentERKNS0_17RandomPrimeConfigEPNS0_10ByteSourceEE4args)
  call void @abort() #14
  unreachable

do.end:                                           ; No predecessors!
  br label %if.end

if.end:                                           ; preds = %do.end, %do.body
  br label %do.end5

do.end5:                                          ; preds = %if.end
  %0 = load ptr, ptr %params.addr, align 8
  %prime = getelementptr inbounds %"struct.node::crypto::RandomPrimeConfig", ptr %0, i32 0, i32 1
  %call6 = call noundef ptr @_ZNKSt10unique_ptrI9bignum_stN4node15FunctionDeleterIS0_XadL_Z7BN_freeEEEEE3getEv(ptr noundef nonnull align 8 dereferenceable(8) %prime) #3
  %1 = load ptr, ptr %params.addr, align 8
  %bits = getelementptr inbounds %"struct.node::crypto::RandomPrimeConfig", ptr %1, i32 0, i32 4
  %2 = load i32, ptr %bits, align 8
  %3 = load ptr, ptr %params.addr, align 8
  %safe = getelementptr inbounds %"struct.node::crypto::RandomPrimeConfig", ptr %3, i32 0, i32 5
  %4 = load i8, ptr %safe, align 4
  %tobool = trunc i8 %4 to i1
  %cond = select i1 %tobool, i32 1, i32 0
  %5 = load ptr, ptr %params.addr, align 8
  %add = getelementptr inbounds %"struct.node::crypto::RandomPrimeConfig", ptr %5, i32 0, i32 3
  %call7 = call noundef ptr @_ZNKSt10unique_ptrI9bignum_stN4node15FunctionDeleterIS0_XadL_Z7BN_freeEEEEE3getEv(ptr noundef nonnull align 8 dereferenceable(8) %add) #3
  %6 = load ptr, ptr %params.addr, align 8
  %rem = getelementptr inbounds %"struct.node::crypto::RandomPrimeConfig", ptr %6, i32 0, i32 2
  %call8 = call noundef ptr @_ZNKSt10unique_ptrI9bignum_stN4node15FunctionDeleterIS0_XadL_Z7BN_freeEEEEE3getEv(ptr noundef nonnull align 8 dereferenceable(8) %rem) #3
  %call9 = call i32 @BN_generate_prime_ex(ptr noundef %call6, i32 noundef %2, i32 noundef %cond, ptr noundef %call7, ptr noundef %call8, ptr noundef null)
  %cmp = icmp eq i32 %call9, 0
  br i1 %cmp, label %if.then10, label %if.end11

if.then10:                                        ; preds = %do.end5
  store i1 false, ptr %retval, align 1
  br label %return

if.end11:                                         ; preds = %do.end5
  store i1 true, ptr %retval, align 1
  br label %return

return:                                           ; preds = %if.end11, %if.then10
  %7 = load i1, ptr %retval, align 1
  ret i1 %7
}