; Function Attrs: mustprogress nounwind uwtable
define dso_local noundef zeroext i1 @_ZN4node6crypto17RandomPrimeTraits10DeriveBitsEPNS_11EnvironmentERKNS0_17RandomPrimeConfigEPNS0_10ByteSourceE(ptr nocapture noundef readnone %env, ptr nocapture noundef nonnull readonly align 8 dereferenceable(40) %params, ptr nocapture noundef readnone %unused) local_unnamed_addr #5 align 2 {
entry:
  %call = tail call i8 @_ZN4node6crypto6CSPRNGEPvm(ptr noundef null, i64 noundef 0) #17
  %0 = and i8 %call, 1
  %tobool.i.not = icmp eq i8 %0, 0
  br i1 %tobool.i.not, label %do.body4, label %do.end5

do.body4:                                         ; preds = %entry
  tail call void @_ZN4node6AssertERKNS_13AssertionInfoE(ptr noundef nonnull align 8 dereferenceable(24) @_ZZN4node6crypto17RandomPrimeTraits10DeriveBitsEPNS_11EnvironmentERKNS0_17RandomPrimeConfigEPNS0_10ByteSourceEE4args) #17
  tail call void @abort() #18
  unreachable

do.end5:                                          ; preds = %entry
  %prime = getelementptr inbounds i8, ptr %params, i64 8
  %1 = load ptr, ptr %prime, align 8
  %bits = getelementptr inbounds i8, ptr %params, i64 32
  %2 = load i32, ptr %bits, align 8
  %safe = getelementptr inbounds i8, ptr %params, i64 36
  %3 = load i8, ptr %safe, align 4
  %4 = and i8 %3, 1
  %cond = zext nneg i8 %4 to i32
  %add = getelementptr inbounds i8, ptr %params, i64 24
  %5 = load ptr, ptr %add, align 8
  %rem = getelementptr inbounds i8, ptr %params, i64 16
  %6 = load ptr, ptr %rem, align 8
  %call9 = tail call i32 @BN_generate_prime_ex(ptr noundef %1, i32 noundef %2, i32 noundef %cond, ptr noundef %5, ptr noundef %6, ptr noundef null) #17
  %cmp = icmp ne i32 %call9, 0
  ret i1 %cmp
}